target datalayout = "e-m:e-p270:32:32-p271:32:32-p272:64:64-i64:64-i128:128-f80:128-n8:16:32:64-S128"
target triple = "x86_64-unknown-linux-gnu"

%struct.ResourceData = type { ptr, ptr, ptr, ptr, i32, i32, ptr, i32, i32, i8, i8, i8, i8 }
%"class.icu_75::ResourceDataValue" = type <{ %"class.icu_75::ResourceValue", ptr, ptr, i32, %"class.icu_75::ResourceTracer", [3 x i8] }>
%"class.icu_75::ResourceValue" = type { %"class.icu_75::UObject" }
%"class.icu_75::UObject" = type { ptr }
%"class.icu_75::ResourceTracer" = type { i8 }
%"class.icu_75::ResourceTable" = type <{ ptr, ptr, ptr, ptr, i32, %"class.icu_75::ResourceTracer", [3 x i8] }>

; Function Attrs: mustprogress nounwind uwtable
define linkonce_odr void @_ZN6icu_7517ResourceDataValue11setResourceEjONS_14ResourceTracerE(ptr noundef nonnull align 8 dereferenceable(29) %this, i32 noundef %r, ptr noundef nonnull align 1 dereferenceable(1) %traceInfo) #2 comdat align 2 {
entry:
  %this.addr = alloca ptr, align 8
  %r.addr = alloca i32, align 4
  %traceInfo.addr = alloca ptr, align 8
  store ptr %this, ptr %this.addr, align 8
  store i32 %r, ptr %r.addr, align 4
  store ptr %traceInfo, ptr %traceInfo.addr, align 8
  %this1 = load ptr, ptr %this.addr, align 8
  %0 = load i32, ptr %r.addr, align 4
  %res = getelementptr inbounds %"class.icu_75::ResourceDataValue", ptr %this1, i32 0, i32 3
  store i32 %0, ptr %res, align 8
  ret void
}

; Function Attrs: mustprogress nounwind uwtable
define linkonce_odr void @_ZN6icu_7514ResourceTracerC2ERKS0_PKc(ptr noundef nonnull align 1 dereferenceable(1) %this, ptr noundef nonnull align 1 dereferenceable(1) %0, ptr noundef %1) unnamed_addr #2 comdat align 2 {
entry:
  %this.addr = alloca ptr, align 8
  %.addr = alloca ptr, align 8
  %.addr1 = alloca ptr, align 8
  store ptr %this, ptr %this.addr, align 8
  store ptr %0, ptr %.addr, align 8
  store ptr %1, ptr %.addr1, align 8
  ret void
}

; Function Attrs: mustprogress nounwind uwtable
define internal noundef i32 @_ZL18makeResourceFrom16PK12ResourceDatai(ptr noundef %pResData, i32 noundef %res16) #2 {
entry:
  %pResData.addr = alloca ptr, align 8
  %res16.addr = alloca i32, align 4
  store ptr %pResData, ptr %pResData.addr, align 8
  store i32 %res16, ptr %res16.addr, align 4
  %0 = load i32, ptr %res16.addr, align 4
  %1 = load ptr, ptr %pResData.addr, align 8
  %poolStringIndex16Limit = getelementptr inbounds %struct.ResourceData, ptr %1, i32 0, i32 8
  %2 = load i32, ptr %poolStringIndex16Limit, align 4
  %cmp = icmp slt i32 %0, %2
  br i1 %cmp, label %if.then, label %if.else

if.then:                                          ; preds = %entry
  br label %if.end

if.else:                                          ; preds = %entry
  %3 = load i32, ptr %res16.addr, align 4
  %4 = load ptr, ptr %pResData.addr, align 8
  %poolStringIndex16Limit1 = getelementptr inbounds %struct.ResourceData, ptr %4, i32 0, i32 8
  %5 = load i32, ptr %poolStringIndex16Limit1, align 4
  %sub = sub nsw i32 %3, %5
  %6 = load ptr, ptr %pResData.addr, align 8
  %poolStringIndexLimit = getelementptr inbounds %struct.ResourceData, ptr %6, i32 0, i32 7
  %7 = load i32, ptr %poolStringIndexLimit, align 8
  %add = add nsw i32 %sub, %7
  store i32 %add, ptr %res16.addr, align 4
  br label %if.end

if.end:                                           ; preds = %if.else, %if.then
  %8 = load i32, ptr %res16.addr, align 4
  %or = or i32 1610612736, %8
  ret i32 %or
}

; Function Attrs: mustprogress nounwind uwtable
define linkonce_odr noundef nonnull align 8 dereferenceable(64) ptr @_ZNK6icu_7517ResourceDataValue7getDataEv(ptr noundef nonnull align 8 dereferenceable(29) %this) #2 comdat align 2 {
entry:
  %this.addr = alloca ptr, align 8
  store ptr %this, ptr %this.addr, align 8
  %this1 = load ptr, ptr %this.addr, align 8
  %pResData = getelementptr inbounds %"class.icu_75::ResourceDataValue", ptr %this1, i32 0, i32 1
  %0 = load ptr, ptr %pResData, align 8
  ret ptr %0
}

; Function Attrs: mustprogress uwtable
define noundef signext i8 @_ZNK6icu_7513ResourceTable14getKeyAndValueEiRPKcRNS_13ResourceValueE(ptr noundef nonnull align 8 dereferenceable(37) %this, i32 noundef %i, ptr noundef nonnull align 8 dereferenceable(8) %key, ptr noundef nonnull align 8 dereferenceable(8) %value) #0 align 2 {
entry:
  %retval = alloca i8, align 1
  %this.addr = alloca ptr, align 8
  %i.addr = alloca i32, align 4
  %key.addr = alloca ptr, align 8
  %value.addr = alloca ptr, align 8
  %rdValue = alloca ptr, align 8
  %res = alloca i32, align 4
  %ref.tmp = alloca %"class.icu_75::ResourceTracer", align 1
  store ptr %this, ptr %this.addr, align 8
  store i32 %i, ptr %i.addr, align 4
  store ptr %key, ptr %key.addr, align 8
  store ptr %value, ptr %value.addr, align 8
  %this1 = load ptr, ptr %this.addr, align 8
  %0 = load i32, ptr %i.addr, align 4
  %cmp = icmp sle i32 0, %0
  br i1 %cmp, label %land.lhs.true, label %if.end56

land.lhs.true:                                    ; preds = %entry
  %1 = load i32, ptr %i.addr, align 4
  %length = getelementptr inbounds %"class.icu_75::ResourceTable", ptr %this1, i32 0, i32 4
  %2 = load i32, ptr %length, align 8
  %cmp2 = icmp slt i32 %1, %2
  br i1 %cmp2, label %if.then, label %if.end56

if.then:                                          ; preds = %land.lhs.true
  %3 = load ptr, ptr %value.addr, align 8
  store ptr %3, ptr %rdValue, align 8
  %keys16 = getelementptr inbounds %"class.icu_75::ResourceTable", ptr %this1, i32 0, i32 0
  %4 = load ptr, ptr %keys16, align 8
  %cmp3 = icmp ne ptr %4, null
  br i1 %cmp3, label %if.then4, label %if.else

if.then4:                                         ; preds = %if.then
  %keys165 = getelementptr inbounds %"class.icu_75::ResourceTable", ptr %this1, i32 0, i32 0
  %5 = load ptr, ptr %keys165, align 8
  %6 = load i32, ptr %i.addr, align 4
  %idxprom = sext i32 %6 to i64
  %arrayidx = getelementptr inbounds i16, ptr %5, i64 %idxprom
  %7 = load i16, ptr %arrayidx, align 2
  %conv = zext i16 %7 to i32
  %8 = load ptr, ptr %rdValue, align 8
  %call = call noundef nonnull align 8 dereferenceable(64) ptr @_ZNK6icu_7517ResourceDataValue7getDataEv(ptr noundef nonnull align 8 dereferenceable(29) %8)
  %localKeyLimit = getelementptr inbounds %struct.ResourceData, ptr %call, i32 0, i32 5
  %9 = load i32, ptr %localKeyLimit, align 4
  %cmp6 = icmp slt i32 %conv, %9
  br i1 %cmp6, label %cond.true, label %cond.false

cond.true:                                        ; preds = %if.then4
  %10 = load ptr, ptr %rdValue, align 8
  %call7 = call noundef nonnull align 8 dereferenceable(64) ptr @_ZNK6icu_7517ResourceDataValue7getDataEv(ptr noundef nonnull align 8 dereferenceable(29) %10)
  %pRoot = getelementptr inbounds %struct.ResourceData, ptr %call7, i32 0, i32 1
  %11 = load ptr, ptr %pRoot, align 8
  %keys168 = getelementptr inbounds %"class.icu_75::ResourceTable", ptr %this1, i32 0, i32 0
  %12 = load ptr, ptr %keys168, align 8
  %13 = load i32, ptr %i.addr, align 4
  %idxprom9 = sext i32 %13 to i64
  %arrayidx10 = getelementptr inbounds i16, ptr %12, i64 %idxprom9
  %14 = load i16, ptr %arrayidx10, align 2
  %conv11 = zext i16 %14 to i32
  %idx.ext = sext i32 %conv11 to i64
  %add.ptr = getelementptr inbounds i8, ptr %11, i64 %idx.ext
  br label %cond.end

cond.false:                                       ; preds = %if.then4
  %15 = load ptr, ptr %rdValue, align 8
  %call12 = call noundef nonnull align 8 dereferenceable(64) ptr @_ZNK6icu_7517ResourceDataValue7getDataEv(ptr noundef nonnull align 8 dereferenceable(29) %15)
  %poolBundleKeys = getelementptr inbounds %struct.ResourceData, ptr %call12, i32 0, i32 3
  %16 = load ptr, ptr %poolBundleKeys, align 8
  %keys1613 = getelementptr inbounds %"class.icu_75::ResourceTable", ptr %this1, i32 0, i32 0
  %17 = load ptr, ptr %keys1613, align 8
  %18 = load i32, ptr %i.addr, align 4
  %idxprom14 = sext i32 %18 to i64
  %arrayidx15 = getelementptr inbounds i16, ptr %17, i64 %idxprom14
  %19 = load i16, ptr %arrayidx15, align 2
  %conv16 = zext i16 %19 to i32
  %idx.ext17 = sext i32 %conv16 to i64
  %add.ptr18 = getelementptr inbounds i8, ptr %16, i64 %idx.ext17
  %20 = load ptr, ptr %rdValue, align 8
  %call19 = call noundef nonnull align 8 dereferenceable(64) ptr @_ZNK6icu_7517ResourceDataValue7getDataEv(ptr noundef nonnull align 8 dereferenceable(29) %20)
  %localKeyLimit20 = getelementptr inbounds %struct.ResourceData, ptr %call19, i32 0, i32 5
  %21 = load i32, ptr %localKeyLimit20, align 4
  %idx.ext21 = sext i32 %21 to i64
  %idx.neg = sub i64 0, %idx.ext21
  %add.ptr22 = getelementptr inbounds i8, ptr %add.ptr18, i64 %idx.neg
  br label %cond.end

cond.end:                                         ; preds = %cond.false, %cond.true
  %cond = phi ptr [ %add.ptr, %cond.true ], [ %add.ptr22, %cond.false ]
  %22 = load ptr, ptr %key.addr, align 8
  store ptr %cond, ptr %22, align 8
  br label %if.end

if.else:                                          ; preds = %if.then
  %keys32 = getelementptr inbounds %"class.icu_75::ResourceTable", ptr %this1, i32 0, i32 1
  %23 = load ptr, ptr %keys32, align 8
  %24 = load i32, ptr %i.addr, align 4
  %idxprom23 = sext i32 %24 to i64
  %arrayidx24 = getelementptr inbounds i32, ptr %23, i64 %idxprom23
  %25 = load i32, ptr %arrayidx24, align 4
  %cmp25 = icmp sge i32 %25, 0
  br i1 %cmp25, label %cond.true26, label %cond.false34

cond.true26:                                      ; preds = %if.else
  %26 = load ptr, ptr %rdValue, align 8
  %call27 = call noundef nonnull align 8 dereferenceable(64) ptr @_ZNK6icu_7517ResourceDataValue7getDataEv(ptr noundef nonnull align 8 dereferenceable(29) %26)
  %pRoot28 = getelementptr inbounds %struct.ResourceData, ptr %call27, i32 0, i32 1
  %27 = load ptr, ptr %pRoot28, align 8
  %keys3229 = getelementptr inbounds %"class.icu_75::ResourceTable", ptr %this1, i32 0, i32 1
  %28 = load ptr, ptr %keys3229, align 8
  %29 = load i32, ptr %i.addr, align 4
  %idxprom30 = sext i32 %29 to i64
  %arrayidx31 = getelementptr inbounds i32, ptr %28, i64 %idxprom30
  %30 = load i32, ptr %arrayidx31, align 4
  %idx.ext32 = sext i32 %30 to i64
  %add.ptr33 = getelementptr inbounds i8, ptr %27, i64 %idx.ext32
  br label %cond.end42

cond.false34:                                     ; preds = %if.else
  %31 = load ptr, ptr %rdValue, align 8
  %call35 = call noundef nonnull align 8 dereferenceable(64) ptr @_ZNK6icu_7517ResourceDataValue7getDataEv(ptr noundef nonnull align 8 dereferenceable(29) %31)
  %poolBundleKeys36 = getelementptr inbounds %struct.ResourceData, ptr %call35, i32 0, i32 3
  %32 = load ptr, ptr %poolBundleKeys36, align 8
  %keys3237 = getelementptr inbounds %"class.icu_75::ResourceTable", ptr %this1, i32 0, i32 1
  %33 = load ptr, ptr %keys3237, align 8
  %34 = load i32, ptr %i.addr, align 4
  %idxprom38 = sext i32 %34 to i64
  %arrayidx39 = getelementptr inbounds i32, ptr %33, i64 %idxprom38
  %35 = load i32, ptr %arrayidx39, align 4
  %and = and i32 %35, 2147483647
  %idx.ext40 = sext i32 %and to i64
  %add.ptr41 = getelementptr inbounds i8, ptr %32, i64 %idx.ext40
  br label %cond.end42

cond.end42:                                       ; preds = %cond.false34, %cond.true26
  %cond43 = phi ptr [ %add.ptr33, %cond.true26 ], [ %add.ptr41, %cond.false34 ]
  %36 = load ptr, ptr %key.addr, align 8
  store ptr %cond43, ptr %36, align 8
  br label %if.end

if.end:                                           ; preds = %cond.end42, %cond.end
  %items16 = getelementptr inbounds %"class.icu_75::ResourceTable", ptr %this1, i32 0, i32 2
  %37 = load ptr, ptr %items16, align 8
  %cmp44 = icmp ne ptr %37, null
  br i1 %cmp44, label %if.then45, label %if.else52

if.then45:                                        ; preds = %if.end
  %38 = load ptr, ptr %rdValue, align 8
  %call46 = call noundef nonnull align 8 dereferenceable(64) ptr @_ZNK6icu_7517ResourceDataValue7getDataEv(ptr noundef nonnull align 8 dereferenceable(29) %38)
  %items1647 = getelementptr inbounds %"class.icu_75::ResourceTable", ptr %this1, i32 0, i32 2
  %39 = load ptr, ptr %items1647, align 8
  %40 = load i32, ptr %i.addr, align 4
  %idxprom48 = sext i32 %40 to i64
  %arrayidx49 = getelementptr inbounds i16, ptr %39, i64 %idxprom48
  %41 = load i16, ptr %arrayidx49, align 2
  %conv50 = zext i16 %41 to i32
  %call51 = call noundef i32 @_ZL18makeResourceFrom16PK12ResourceDatai(ptr noundef %call46, i32 noundef %conv50)
  store i32 %call51, ptr %res, align 4
  br label %if.end55

if.else52:                                        ; preds = %if.end
  %items32 = getelementptr inbounds %"class.icu_75::ResourceTable", ptr %this1, i32 0, i32 3
  %42 = load ptr, ptr %items32, align 8
  %43 = load i32, ptr %i.addr, align 4
  %idxprom53 = sext i32 %43 to i64
  %arrayidx54 = getelementptr inbounds i32, ptr %42, i64 %idxprom53
  %44 = load i32, ptr %arrayidx54, align 4
  store i32 %44, ptr %res, align 4
  br label %if.end55

if.end55:                                         ; preds = %if.else52, %if.then45
  %45 = load ptr, ptr %rdValue, align 8
  %46 = load i32, ptr %res, align 4
  %fTraceInfo = getelementptr inbounds %"class.icu_75::ResourceTable", ptr %this1, i32 0, i32 5
  %47 = load ptr, ptr %key.addr, align 8
  %48 = load ptr, ptr %47, align 8
  call void @_ZN6icu_7514ResourceTracerC2ERKS0_PKc(ptr noundef nonnull align 1 dereferenceable(1) %ref.tmp, ptr noundef nonnull align 1 dereferenceable(1) %fTraceInfo, ptr noundef %48)
  call void @_ZN6icu_7517ResourceDataValue11setResourceEjONS_14ResourceTracerE(ptr noundef nonnull align 8 dereferenceable(29) %45, i32 noundef %46, ptr noundef nonnull align 1 dereferenceable(1) %ref.tmp)
  store i8 1, ptr %retval, align 1
  br label %return

if.end56:                                         ; preds = %land.lhs.true, %entry
  store i8 0, ptr %retval, align 1
  br label %return

return:                                           ; preds = %if.end56, %if.end55
  %49 = load i8, ptr %retval, align 1
  ret i8 %49
}