; Function Attrs: mustprogress nofree norecurse nosync nounwind willreturn memory(read, argmem: readwrite, inaccessiblemem: none) uwtable
define noundef signext i8 @_ZNK6icu_7513ResourceTable14getKeyAndValueEiRPKcRNS_13ResourceValueE(ptr nocapture noundef nonnull readonly align 8 dereferenceable(37) %this, i32 noundef %i, ptr nocapture noundef nonnull writeonly align 8 dereferenceable(8) %key, ptr nocapture noundef nonnull align 8 dereferenceable(8) %value) local_unnamed_addr #5 align 2 {
entry:
  %cmp = icmp sgt i32 %i, -1
  %length = getelementptr inbounds i8, ptr %this, i64 32
  %0 = load i32, ptr %length, align 8
  %cmp2 = icmp sgt i32 %0, %i
  %or.cond = select i1 %cmp, i1 %cmp2, i1 false
  br i1 %or.cond, label %if.then, label %return

if.then:                                          ; preds = %entry
  %1 = load ptr, ptr %this, align 8
  %cmp3.not = icmp eq ptr %1, null
  br i1 %cmp3.not, label %if.else, label %if.then4

if.then4:                                         ; preds = %if.then
  %idxprom = zext nneg i32 %i to i64
  %arrayidx = getelementptr inbounds i16, ptr %1, i64 %idxprom
  %2 = load i16, ptr %arrayidx, align 2
  %conv = zext i16 %2 to i32
  %pResData.i = getelementptr inbounds i8, ptr %value, i64 8
  %3 = load ptr, ptr %pResData.i, align 8
  %localKeyLimit = getelementptr inbounds i8, ptr %3, i64 36
  %4 = load i32, ptr %localKeyLimit, align 4
  %cmp6 = icmp sgt i32 %4, %conv
  %idx.ext = zext i16 %2 to i64
  br i1 %cmp6, label %cond.true, label %cond.false

cond.true:                                        ; preds = %if.then4
  %pRoot = getelementptr inbounds i8, ptr %3, i64 8
  %5 = load ptr, ptr %pRoot, align 8
  %add.ptr = getelementptr inbounds i8, ptr %5, i64 %idx.ext
  br label %if.end

cond.false:                                       ; preds = %if.then4
  %poolBundleKeys = getelementptr inbounds i8, ptr %3, i64 24
  %6 = load ptr, ptr %poolBundleKeys, align 8
  %add.ptr18 = getelementptr inbounds i8, ptr %6, i64 %idx.ext
  %idx.ext21 = sext i32 %4 to i64
  %idx.neg = sub nsw i64 0, %idx.ext21
  %add.ptr22 = getelementptr inbounds i8, ptr %add.ptr18, i64 %idx.neg
  br label %if.end

if.else:                                          ; preds = %if.then
  %keys32 = getelementptr inbounds i8, ptr %this, i64 8
  %7 = load ptr, ptr %keys32, align 8
  %idxprom23 = zext nneg i32 %i to i64
  %arrayidx24 = getelementptr inbounds i32, ptr %7, i64 %idxprom23
  %8 = load i32, ptr %arrayidx24, align 4
  %cmp25 = icmp sgt i32 %8, -1
  %pResData.i22 = getelementptr inbounds i8, ptr %value, i64 8
  %9 = load ptr, ptr %pResData.i22, align 8
  br i1 %cmp25, label %cond.true26, label %cond.false34

cond.true26:                                      ; preds = %if.else
  %pRoot28 = getelementptr inbounds i8, ptr %9, i64 8
  %10 = load ptr, ptr %pRoot28, align 8
  %idx.ext32 = zext nneg i32 %8 to i64
  %add.ptr33 = getelementptr inbounds i8, ptr %10, i64 %idx.ext32
  br label %if.end

cond.false34:                                     ; preds = %if.else
  %poolBundleKeys36 = getelementptr inbounds i8, ptr %9, i64 24
  %11 = load ptr, ptr %poolBundleKeys36, align 8
  %and = and i32 %8, 2147483647
  %idx.ext40 = zext nneg i32 %and to i64
  %add.ptr41 = getelementptr inbounds i8, ptr %11, i64 %idx.ext40
  br label %if.end

if.end:                                           ; preds = %cond.true26, %cond.false34, %cond.true, %cond.false
  %storemerge = phi ptr [ %add.ptr, %cond.true ], [ %add.ptr22, %cond.false ], [ %add.ptr33, %cond.true26 ], [ %add.ptr41, %cond.false34 ]
  store ptr %storemerge, ptr %key, align 8
  %items16 = getelementptr inbounds i8, ptr %this, i64 16
  %12 = load ptr, ptr %items16, align 8
  %cmp44.not = icmp eq ptr %12, null
  %idxprom53 = zext nneg i32 %i to i64
  br i1 %cmp44.not, label %if.else52, label %if.then45

if.then45:                                        ; preds = %if.end
  %pResData.i24 = getelementptr inbounds i8, ptr %value, i64 8
  %13 = load ptr, ptr %pResData.i24, align 8
  %arrayidx49 = getelementptr inbounds i16, ptr %12, i64 %idxprom53
  %14 = load i16, ptr %arrayidx49, align 2
  %conv50 = zext i16 %14 to i32
  %poolStringIndex16Limit.i = getelementptr inbounds i8, ptr %13, i64 52
  %15 = load i32, ptr %poolStringIndex16Limit.i, align 4
  %cmp.i = icmp sgt i32 %15, %conv50
  br i1 %cmp.i, label %_ZL18makeResourceFrom16PK12ResourceDatai.exit, label %if.else.i

if.else.i:                                        ; preds = %if.then45
  %sub.i = sub i32 %conv50, %15
  %poolStringIndexLimit.i = getelementptr inbounds i8, ptr %13, i64 48
  %16 = load i32, ptr %poolStringIndexLimit.i, align 8
  %add.i = add nsw i32 %sub.i, %16
  br label %_ZL18makeResourceFrom16PK12ResourceDatai.exit

_ZL18makeResourceFrom16PK12ResourceDatai.exit:    ; preds = %if.then45, %if.else.i
  %res16.addr.0.i = phi i32 [ %conv50, %if.then45 ], [ %add.i, %if.else.i ]
  %or.i = or i32 %res16.addr.0.i, 1610612736
  br label %if.end55

if.else52:                                        ; preds = %if.end
  %items32 = getelementptr inbounds i8, ptr %this, i64 24
  %17 = load ptr, ptr %items32, align 8
  %arrayidx54 = getelementptr inbounds i32, ptr %17, i64 %idxprom53
  %18 = load i32, ptr %arrayidx54, align 4
  br label %if.end55

if.end55:                                         ; preds = %if.else52, %_ZL18makeResourceFrom16PK12ResourceDatai.exit
  %res.0 = phi i32 [ %or.i, %_ZL18makeResourceFrom16PK12ResourceDatai.exit ], [ %18, %if.else52 ]
  %res.i = getelementptr inbounds i8, ptr %value, i64 24
  store i32 %res.0, ptr %res.i, align 8
  br label %return

return:                                           ; preds = %entry, %if.end55
  %retval.0 = phi i8 [ 1, %if.end55 ], [ 0, %entry ]
  ret i8 %retval.0
}